target datalayout = "e-m:e-p270:32:32-p271:32:32-p272:64:64-i64:64-i128:128-f80:128-n8:16:32:64-S128"
target triple = "x86_64-pc-linux-gnu"

%"class.cv::tinyxml2::StrPair" = type { i32, ptr, ptr }
%"class.cv::tinyxml2::XMLNode" = type { ptr, ptr, ptr, %"class.cv::tinyxml2::StrPair", ptr, ptr, ptr, ptr, ptr }
%"class.cv::tinyxml2::XMLElement" = type { %"class.cv::tinyxml2::XMLNode", i32, ptr }
%"class.cv::tinyxml2::XMLAttribute" = type { ptr, %"class.cv::tinyxml2::StrPair", %"class.cv::tinyxml2::StrPair", ptr, ptr }

; Function Attrs: mustprogress nounwind uwtable
define hidden void @_ZN2cv8tinyxml210XMLElementD2Ev(ptr noundef nonnull align 8 dereferenceable(104) %0) unnamed_addr #0 align 2 personality ptr @__gxx_personality_v0 {
  %2 = alloca ptr, align 8
  %3 = alloca ptr, align 8
  %4 = alloca ptr, align 8
  store ptr %0, ptr %2, align 8, !tbaa !121
  %5 = load ptr, ptr %2, align 8
  store ptr getelementptr inbounds inrange(-16, 144) ({ [20 x ptr] }, ptr @_ZTVN2cv8tinyxml210XMLElementE, i32 0, i32 0, i32 2), ptr %5, align 8, !tbaa !92
  br label %6

6:                                                ; preds = %35, %1
  %7 = getelementptr inbounds nuw %"class.cv::tinyxml2::XMLElement", ptr %5, i32 0, i32 2
  %8 = load ptr, ptr %7, align 8, !tbaa !152
  %9 = icmp ne ptr %8, null
  br i1 %9, label %10, label %38

10:                                               ; preds = %6
  call void @llvm.lifetime.start.p0(i64 8, ptr %3) #17
  %11 = getelementptr inbounds nuw %"class.cv::tinyxml2::XMLElement", ptr %5, i32 0, i32 2
  %12 = load ptr, ptr %11, align 8, !tbaa !152
  %13 = getelementptr inbounds nuw %"class.cv::tinyxml2::XMLAttribute", ptr %12, i32 0, i32 3
  %14 = load ptr, ptr %13, align 8, !tbaa !153
  store ptr %14, ptr %3, align 8, !tbaa !151
  %15 = getelementptr inbounds nuw %"class.cv::tinyxml2::XMLElement", ptr %5, i32 0, i32 2
  %16 = load ptr, ptr %15, align 8, !tbaa !152
  %17 = icmp ne ptr %16, null
  br i1 %17, label %18, label %35

18:                                               ; preds = %10
  call void @llvm.lifetime.start.p0(i64 8, ptr %4) #17
  %19 = getelementptr inbounds nuw %"class.cv::tinyxml2::XMLElement", ptr %5, i32 0, i32 2
  %20 = load ptr, ptr %19, align 8, !tbaa !152
  %21 = getelementptr inbounds nuw %"class.cv::tinyxml2::XMLAttribute", ptr %20, i32 0, i32 4
  %22 = load ptr, ptr %21, align 8, !tbaa !155
  store ptr %22, ptr %4, align 8, !tbaa !119
  %23 = getelementptr inbounds nuw %"class.cv::tinyxml2::XMLElement", ptr %5, i32 0, i32 2
  %24 = load ptr, ptr %23, align 8, !tbaa !152
  %25 = load ptr, ptr %24, align 8, !tbaa !92
  %26 = getelementptr inbounds ptr, ptr %25, i64 0
  %27 = load ptr, ptr %26, align 8
  call void %27(ptr noundef nonnull align 8 dereferenceable(72) %24) #17
  %28 = load ptr, ptr %4, align 8, !tbaa !119
  %29 = getelementptr inbounds nuw %"class.cv::tinyxml2::XMLElement", ptr %5, i32 0, i32 2
  %30 = load ptr, ptr %29, align 8, !tbaa !152
  %31 = load ptr, ptr %28, align 8, !tbaa !92
  %32 = getelementptr inbounds ptr, ptr %31, i64 4
  %33 = load ptr, ptr %32, align 8
  invoke void %33(ptr noundef nonnull align 8 dereferenceable(8) %28, ptr noundef %30)
          to label %34 unwind label %39

34:                                               ; preds = %18
  call void @llvm.lifetime.end.p0(i64 8, ptr %4) #17
  br label %35

35:                                               ; preds = %34, %10
  %36 = load ptr, ptr %3, align 8, !tbaa !151
  %37 = getelementptr inbounds nuw %"class.cv::tinyxml2::XMLElement", ptr %5, i32 0, i32 2
  store ptr %36, ptr %37, align 8, !tbaa !152
  call void @llvm.lifetime.end.p0(i64 8, ptr %3) #17
  br label %6, !llvm.loop !156

38:                                               ; preds = %6
  call void @_ZN2cv8tinyxml27XMLNodeD2Ev(ptr noundef nonnull align 8 dereferenceable(88) %5) #17
  ret void

39:                                               ; preds = %18
  %40 = landingpad { ptr, i32 }
          catch ptr null
  %41 = extractvalue { ptr, i32 } %40, 0
  call void @__clang_call_terminate(ptr %41) #15
  unreachable
}