; Function Attrs: mustprogress nounwind uwtable
define hidden void @_ZN2cv8tinyxml210XMLElementD2Ev(ptr noundef nonnull align 8 dereferenceable(104) initializes((0, 8)) %0) unnamed_addr #0 align 2 personality ptr @__gxx_personality_v0 {
  store ptr getelementptr inbounds nuw inrange(-16, 144) (i8, ptr @_ZTVN2cv8tinyxml210XMLElementE, i64 16), ptr %0, align 8, !tbaa !39
  %2 = getelementptr inbounds nuw i8, ptr %0, i64 96
  %3 = load ptr, ptr %2, align 8, !tbaa !47
  %.not3 = icmp eq ptr %3, null
  br i1 %.not3, label %._crit_edge, label %.lr.ph

.lr.ph:                                           ; preds = %1, %15
  %4 = phi ptr [ %6, %15 ], [ %3, %1 ]
  %5 = getelementptr inbounds nuw i8, ptr %4, i64 56
  %6 = load ptr, ptr %5, align 8, !tbaa !123
  %7 = getelementptr inbounds nuw i8, ptr %4, i64 64
  %8 = load ptr, ptr %7, align 8, !tbaa !125
  %9 = load ptr, ptr %4, align 8, !tbaa !39
  %10 = load ptr, ptr %9, align 8
  tail call void %10(ptr noundef nonnull align 8 dereferenceable(72) %4) #24
  %11 = load ptr, ptr %2, align 8, !tbaa !47
  %12 = load ptr, ptr %8, align 8, !tbaa !39
  %13 = getelementptr inbounds nuw i8, ptr %12, i64 32
  %14 = load ptr, ptr %13, align 8
  invoke void %14(ptr noundef nonnull align 8 dereferenceable(8) %8, ptr noundef %11)
          to label %15 unwind label %16

15:                                               ; preds = %.lr.ph
  store ptr %6, ptr %2, align 8, !tbaa !47
  %.not = icmp eq ptr %6, null
  br i1 %.not, label %._crit_edge, label %.lr.ph, !llvm.loop !126

._crit_edge:                                      ; preds = %15, %1
  tail call void @_ZN2cv8tinyxml27XMLNodeD2Ev(ptr noundef nonnull align 8 dereferenceable(88) %0) #24
  ret void

16:                                               ; preds = %.lr.ph
  %17 = landingpad { ptr, i32 }
          catch ptr null
  %18 = extractvalue { ptr, i32 } %17, 0
  tail call void @__clang_call_terminate(ptr %18) #25
  unreachable
}